; Function Attrs: nofree nounwind uwtable
define noalias noundef ptr @Pdr_ManCountFlops(ptr noundef readonly captures(none) %0, ptr noundef readonly captures(none) %1) local_unnamed_addr #3 {
  %3 = getelementptr inbounds nuw i8, ptr %0, i64 8
  %4 = load ptr, ptr %3, align 8
  %5 = getelementptr i8, ptr %4, i64 104
  %.val14 = load i32, ptr %5, align 8
  %6 = tail call noalias dereferenceable_or_null(16) ptr @malloc(i64 noundef 16) #20
  %7 = add i32 %.val14, -1
  %or.cond.i.i = icmp ult i32 %7, 15
  %spec.store.select.i.i = select i1 %or.cond.i.i, i32 16, i32 %.val14
  %8 = getelementptr inbounds nuw i8, ptr %6, i64 4
  store i32 %spec.store.select.i.i, ptr %6, align 8
  %.not.i.i = icmp eq i32 %spec.store.select.i.i, 0
  br i1 %.not.i.i, label %Vec_IntAlloc.exit.thread.i, label %Vec_IntAlloc.exit.i

Vec_IntAlloc.exit.thread.i:                       ; preds = %2
  %9 = getelementptr inbounds nuw i8, ptr %6, i64 8
  store ptr null, ptr %9, align 8
  store i32 %.val14, ptr %8, align 4
  br label %Vec_IntStart.exit

Vec_IntAlloc.exit.i:                              ; preds = %2
  %10 = sext i32 %spec.store.select.i.i to i64
  %11 = shl nsw i64 %10, 2
  %12 = tail call noalias ptr @malloc(i64 noundef %11) #20
  %13 = getelementptr inbounds nuw i8, ptr %6, i64 8
  store ptr %12, ptr %13, align 8
  store i32 %.val14, ptr %8, align 4
  %.not.i = icmp eq ptr %12, null
  br i1 %.not.i, label %Vec_IntStart.exit, label %14

14:                                               ; preds = %Vec_IntAlloc.exit.i
  %15 = sext i32 %.val14 to i64
  %16 = shl nsw i64 %15, 2
  tail call void @llvm.memset.p0.i64(ptr nonnull align 4 %12, i8 0, i64 %16, i1 false)
  br label %Vec_IntStart.exit

Vec_IntStart.exit:                                ; preds = %Vec_IntAlloc.exit.thread.i, %Vec_IntAlloc.exit.i, %14
  %.val16 = phi ptr [ null, %Vec_IntAlloc.exit.thread.i ], [ null, %Vec_IntAlloc.exit.i ], [ %12, %14 ]
  %17 = getelementptr i8, ptr %1, i64 4
  %.val18 = load i32, ptr %17, align 4
  %18 = icmp sgt i32 %.val18, 0
  br i1 %18, label %.lr.ph20, label %.critedge

.lr.ph20:                                         ; preds = %Vec_IntStart.exit
  %19 = getelementptr i8, ptr %1, i64 8
  %.val15 = load ptr, ptr %19, align 8
  %20 = zext nneg i32 %.val18 to i64
  br label %21

21:                                               ; preds = %.lr.ph20, %.loopexit
  %indvars.iv22 = phi i64 [ 0, %.lr.ph20 ], [ %indvars.iv.next23, %.loopexit ]
  %22 = getelementptr inbounds nuw ptr, ptr %.val15, i64 %indvars.iv22
  %23 = load ptr, ptr %22, align 8
  %24 = getelementptr inbounds nuw i8, ptr %23, i64 8
  %25 = load i32, ptr %24, align 8
  %26 = icmp eq i32 %25, -1
  br i1 %26, label %.loopexit, label %.preheader

.preheader:                                       ; preds = %21
  %27 = getelementptr inbounds nuw i8, ptr %23, i64 16
  %28 = load i32, ptr %27, align 8
  %29 = icmp sgt i32 %28, 0
  br i1 %29, label %.lr.ph, label %.loopexit

.lr.ph:                                           ; preds = %.preheader
  %30 = getelementptr inbounds nuw i8, ptr %23, i64 20
  br label %31

31:                                               ; preds = %.lr.ph, %31
  %indvars.iv = phi i64 [ 0, %.lr.ph ], [ %indvars.iv.next, %31 ]
  %32 = getelementptr inbounds nuw [0 x i32], ptr %30, i64 0, i64 %indvars.iv
  %33 = load i32, ptr %32, align 4
  %34 = ashr i32 %33, 1
  %35 = sext i32 %34 to i64
  %36 = getelementptr inbounds i32, ptr %.val16, i64 %35
  %37 = load i32, ptr %36, align 4
  %38 = add nsw i32 %37, 1
  store i32 %38, ptr %36, align 4
  %indvars.iv.next = add nuw nsw i64 %indvars.iv, 1
  %39 = load i32, ptr %27, align 8
  %40 = sext i32 %39 to i64
  %41 = icmp slt i64 %indvars.iv.next, %40
  br i1 %41, label %31, label %.loopexit, !llvm.loop !10

.loopexit:                                        ; preds = %31, %.preheader, %21
  %indvars.iv.next23 = add nuw nsw i64 %indvars.iv22, 1
  %42 = icmp samesign ult i64 %indvars.iv.next23, %20
  br i1 %42, label %21, label %.critedge, !llvm.loop !11

.critedge:                                        ; preds = %.loopexit, %Vec_IntStart.exit
  ret ptr %6
}